; Function Attrs: nounwind uwtable
define internal range(i32 -2147483648, 1) i32 @adts_init(ptr noundef %0) #0 {
  %2 = getelementptr inbounds nuw i8, ptr %0, i64 48
  %3 = load ptr, ptr %2, align 8, !tbaa !26
  %4 = load ptr, ptr %3, align 8, !tbaa !27
  %5 = getelementptr inbounds nuw i8, ptr %4, i64 16
  %6 = load ptr, ptr %5, align 8, !tbaa !29
  %7 = getelementptr inbounds nuw i8, ptr %6, i64 24
  %8 = load i32, ptr %7, align 8, !tbaa !38
  %9 = icmp sgt i32 %8, 0
  br i1 %9, label %10, label %16

10:                                               ; preds = %1
  %11 = getelementptr inbounds nuw i8, ptr %0, i64 24
  %12 = load ptr, ptr %11, align 8, !tbaa !4
  %13 = getelementptr inbounds nuw i8, ptr %6, i64 16
  %14 = load ptr, ptr %13, align 8, !tbaa !42
  %15 = tail call fastcc i32 @adts_decode_extradata(ptr noundef nonnull %0, ptr noundef %12, ptr noundef %14, i32 noundef %8)
  br label %16

16:                                               ; preds = %1, %10
  %.0 = phi i32 [ %15, %10 ], [ 0, %1 ]
  ret i32 %.0
}